target datalayout = "e-m:e-p270:32:32-p271:32:32-p272:64:64-i64:64-i128:128-f80:128-n8:16:32:64-S128"
target triple = "x86_64-pc-linux-gnu"

%"class.std::basic_ios" = type { %"class.std::ios_base", ptr, i8, i8, ptr, ptr, ptr, ptr }
%"class.std::ios_base" = type { ptr, i64, i64, i32, i32, i32, ptr, %"struct.std::ios_base::_Words", [8 x %"struct.std::ios_base::_Words"], i32, ptr, %"class.std::locale" }
%"struct.std::ios_base::_Words" = type { ptr, i64 }
%"class.std::locale" = type { ptr }
%"class.std::__cxx11::basic_string" = type { %"struct.std::__cxx11::basic_string<char>::_Alloc_hider", i64, %union.anon }
%"struct.std::__cxx11::basic_string<char>::_Alloc_hider" = type { ptr }
%union.anon = type { i64, [8 x i8] }
%"class.std::__shared_ptr" = type { ptr, %"class.std::__shared_count" }
%"class.std::__shared_count" = type { ptr }
%"struct.std::__detail::_Hash_node_base" = type { ptr }
%"struct.std::__detail::_Prime_rehash_policy" = type { float, i64 }
%"struct.Luau::TypeArena" = type { %"class.Luau::TypedAllocator", %"class.Luau::TypedAllocator.129", ptr }
%"class.Luau::TypedAllocator" = type { i8, %"class.std::vector.124", i64 }
%"class.std::vector.124" = type { %"struct.std::_Vector_base.125" }
%"struct.std::_Vector_base.125" = type { %"struct.std::_Vector_base<Luau::Type *, std::allocator<Luau::Type *>>::_Vector_impl" }
%"struct.std::_Vector_base<Luau::Type *, std::allocator<Luau::Type *>>::_Vector_impl" = type { %"struct.std::_Vector_base<Luau::Type *, std::allocator<Luau::Type *>>::_Vector_impl_data" }
%"struct.std::_Vector_base<Luau::Type *, std::allocator<Luau::Type *>>::_Vector_impl_data" = type { ptr, ptr, ptr }
%"class.Luau::TypedAllocator.129" = type { i8, %"class.std::vector.130", i64 }
%"class.std::vector.130" = type { %"struct.std::_Vector_base.131" }
%"struct.std::_Vector_base.131" = type { %"struct.std::_Vector_base<Luau::TypePackVar *, std::allocator<Luau::TypePackVar *>>::_Vector_impl" }
%"struct.std::_Vector_base<Luau::TypePackVar *, std::allocator<Luau::TypePackVar *>>::_Vector_impl" = type { %"struct.std::_Vector_base<Luau::TypePackVar *, std::allocator<Luau::TypePackVar *>>::_Vector_impl_data" }
%"struct.std::_Vector_base<Luau::TypePackVar *, std::allocator<Luau::TypePackVar *>>::_Vector_impl_data" = type { ptr, ptr, ptr }
%"class.std::shared_ptr.135" = type { %"class.std::__shared_ptr.136" }
%"class.std::__shared_ptr.136" = type { ptr, %"class.std::__shared_count" }
%"class.std::shared_ptr.138" = type { %"class.std::__shared_ptr.139" }
%"class.std::__shared_ptr.139" = type { ptr, %"class.std::__shared_count" }
%"class.std::vector.266" = type { %"struct.std::_Vector_base.267" }
%"struct.std::_Vector_base.267" = type { %"struct.std::_Vector_base<Luau::LintWarning, std::allocator<Luau::LintWarning>>::_Vector_impl" }
%"struct.std::_Vector_base<Luau::LintWarning, std::allocator<Luau::LintWarning>>::_Vector_impl" = type { %"struct.std::_Vector_base<Luau::LintWarning, std::allocator<Luau::LintWarning>>::_Vector_impl_data" }
%"struct.std::_Vector_base<Luau::LintWarning, std::allocator<Luau::LintWarning>>::_Vector_impl_data" = type { ptr, ptr, ptr }
%"struct.Luau::DenseHashPointer" = type { i8 }
%"struct.std::equal_to.273" = type { i8 }
%"class.std::vector.412" = type { %"struct.std::_Vector_base.413" }
%"struct.std::_Vector_base.413" = type { %"struct.std::_Vector_base<Luau::TypeError, std::allocator<Luau::TypeError>>::_Vector_impl" }
%"struct.std::_Vector_base<Luau::TypeError, std::allocator<Luau::TypeError>>::_Vector_impl" = type { %"struct.std::_Vector_base<Luau::TypeError, std::allocator<Luau::TypeError>>::_Vector_impl_data" }
%"struct.std::_Vector_base<Luau::TypeError, std::allocator<Luau::TypeError>>::_Vector_impl_data" = type { ptr, ptr, ptr }
%"struct.Luau::LintResult" = type { %"class.std::vector.266", %"class.std::vector.266" }
%"class.doctest::String" = type { %union.anon.436 }
%union.anon.436 = type { %"struct.doctest::String::view", [8 x i8] }
%"struct.doctest::String::view" = type { ptr, i32, i32 }
%"class.std::unordered_map.511" = type { %"class.std::_Hashtable.512" }
%"class.std::_Hashtable.512" = type { ptr, i64, %"struct.std::__detail::_Hash_node_base", i64, %"struct.std::__detail::_Prime_rehash_policy", ptr }
%"class.std::unordered_map.497" = type { %"class.std::_Hashtable.498" }
%"class.std::_Hashtable.498" = type { ptr, i64, %"struct.std::__detail::_Hash_node_base", i64, %"struct.std::__detail::_Prime_rehash_policy", ptr }
%"struct.doctest::detail::MessageBuilder" = type <{ %"struct.doctest::MessageData", ptr, i8, [7 x i8] }>
%"struct.doctest::MessageData" = type { %"class.doctest::String", ptr, i32, i32 }
%"struct.Luau::Module" = type { %"class.std::__cxx11::basic_string", %"class.std::__cxx11::basic_string", %"struct.Luau::TypeArena", %"struct.Luau::TypeArena", %"class.std::shared_ptr.135", %"class.std::shared_ptr.138", %"class.std::vector.458", %"class.Luau::DenseHashMap.463", %"class.Luau::DenseHashMap.468", %"class.Luau::DenseHashMap.463", %"class.Luau::DenseHashMap.471", %"class.Luau::DenseHashMap.471", %"class.Luau::DenseHashMap.471", %"class.Luau::DenseHashMap.476", %"class.Luau::DenseHashMap.481", %"class.Luau::DenseHashMap.486", %"class.Luau::DenseHashMap.491", %"class.Luau::DenseHashMap.494", %"class.std::unordered_map.497", %"class.std::vector.412", %"struct.Luau::LintResult", i32, i32, double, i8, i8, ptr, %"class.std::unordered_map.511" }
%"class.std::vector.458" = type { %"struct.std::_Vector_base.459" }
%"struct.std::_Vector_base.459" = type { %"struct.std::_Vector_base<std::pair<Luau::Location, std::shared_ptr<Luau::Scope>>, std::allocator<std::pair<Luau::Location, std::shared_ptr<Luau::Scope>>>>::_Vector_impl" }
%"struct.std::_Vector_base<std::pair<Luau::Location, std::shared_ptr<Luau::Scope>>, std::allocator<std::pair<Luau::Location, std::shared_ptr<Luau::Scope>>>>::_Vector_impl" = type { %"struct.std::_Vector_base<std::pair<Luau::Location, std::shared_ptr<Luau::Scope>>, std::allocator<std::pair<Luau::Location, std::shared_ptr<Luau::Scope>>>>::_Vector_impl_data" }
%"struct.std::_Vector_base<std::pair<Luau::Location, std::shared_ptr<Luau::Scope>>, std::allocator<std::pair<Luau::Location, std::shared_ptr<Luau::Scope>>>>::_Vector_impl_data" = type { ptr, ptr, ptr }
%"class.Luau::DenseHashMap.468" = type { %"class.Luau::detail::DenseHashTable.469" }
%"class.Luau::detail::DenseHashTable.469" = type <{ ptr, i64, i64, ptr, %"struct.Luau::DenseHashPointer", %"struct.std::equal_to.465", [6 x i8] }>
%"struct.std::equal_to.465" = type { i8 }
%"class.Luau::DenseHashMap.463" = type { %"class.Luau::detail::DenseHashTable.464" }
%"class.Luau::detail::DenseHashTable.464" = type <{ ptr, i64, i64, ptr, %"struct.Luau::DenseHashPointer", %"struct.std::equal_to.465", [6 x i8] }>
%"class.Luau::DenseHashMap.471" = type { %"class.Luau::detail::DenseHashTable.472" }
%"class.Luau::detail::DenseHashTable.472" = type <{ ptr, i64, i64, ptr, %"struct.Luau::DenseHashPointer", %"struct.std::equal_to.473", [6 x i8] }>
%"struct.std::equal_to.473" = type { i8 }
%"class.Luau::DenseHashMap.476" = type { %"class.Luau::detail::DenseHashTable.477" }
%"class.Luau::detail::DenseHashTable.477" = type <{ ptr, i64, i64, ptr, %"struct.Luau::DenseHashPointer", %"struct.std::equal_to.478", [6 x i8] }>
%"struct.std::equal_to.478" = type { i8 }
%"class.Luau::DenseHashMap.481" = type { %"class.Luau::detail::DenseHashTable.482" }
%"class.Luau::detail::DenseHashTable.482" = type <{ ptr, i64, i64, ptr, %"struct.Luau::DenseHashPointer", %"struct.std::equal_to.483", [6 x i8] }>
%"struct.std::equal_to.483" = type { i8 }
%"class.Luau::DenseHashMap.486" = type { %"class.Luau::detail::DenseHashTable.487" }
%"class.Luau::detail::DenseHashTable.487" = type <{ ptr, i64, i64, ptr, %"struct.Luau::DenseHashPointer", %"struct.std::equal_to.488", [6 x i8] }>
%"struct.std::equal_to.488" = type { i8 }
%"class.Luau::DenseHashMap.491" = type { %"class.Luau::detail::DenseHashTable.492" }
%"class.Luau::detail::DenseHashTable.492" = type <{ ptr, i64, i64, ptr, %"struct.Luau::DenseHashPointer", %"struct.std::equal_to.273", [6 x i8] }>
%"class.Luau::DenseHashMap.494" = type { %"class.Luau::detail::DenseHashTable.495" }
%"class.Luau::detail::DenseHashTable.495" = type <{ ptr, i64, i64, ptr, %"struct.Luau::DenseHashPointer", %"struct.std::equal_to.473", [6 x i8] }>
%"class.std::__cxx11::basic_stringstream" = type { %"class.std::basic_iostream.base", %"class.std::__cxx11::basic_stringbuf", %"class.std::basic_ios" }
%"class.std::basic_iostream.base" = type { %"class.std::basic_istream.base", %"class.std::basic_ostream.base" }
%"class.std::basic_istream.base" = type { ptr, i64 }
%"class.std::basic_ostream.base" = type { ptr }
%"class.std::__cxx11::basic_stringbuf" = type { %"class.std::basic_streambuf", i32, %"class.std::__cxx11::basic_string" }
%"class.std::basic_streambuf" = type { ptr, ptr, ptr, ptr, ptr, ptr, ptr, %"class.std::locale" }

@.str.61 = private unnamed_addr constant [105 x i8] c"generated/home/dtcxzyw/WorkSpace/Projects/compilers/llvm-opt-benchmark/bench/luau/luau/tests/Fixture.cpp\00", align 1

; Function Attrs: mustprogress nounwind uwtable
define linkonce_odr dso_local noundef ptr @_ZNKSt12__shared_ptrIN4Luau6ModuleELN9__gnu_cxx12_Lock_policyE2EE3getEv(ptr noundef nonnull align 8 dereferenceable(16) %0) #1 comdat align 2 {
  %2 = alloca ptr, align 8
  store ptr %0, ptr %2, align 8
  %3 = load ptr, ptr %2, align 8
  %4 = getelementptr inbounds %"class.std::__shared_ptr", ptr %3, i32 0, i32 0
  %5 = load ptr, ptr %4, align 8
  ret ptr %5
}

; Function Attrs: mustprogress nounwind uwtable
define linkonce_odr dso_local noundef ptr @_ZNKSt19__shared_ptr_accessIN4Luau6ModuleELN9__gnu_cxx12_Lock_policyE2ELb0ELb0EE6_M_getEv(ptr noundef nonnull align 1 dereferenceable(1) %0) #1 comdat align 2 {
  %2 = alloca ptr, align 8
  store ptr %0, ptr %2, align 8
  %3 = load ptr, ptr %2, align 8
  %4 = call noundef ptr @_ZNKSt12__shared_ptrIN4Luau6ModuleELN9__gnu_cxx12_Lock_policyE2EE3getEv(ptr noundef nonnull align 8 dereferenceable(16) %3) #2
  ret ptr %4
}

; Function Attrs: mustprogress uwtable
define linkonce_odr dso_local noundef nonnull align 8 dereferenceable(49) ptr @_ZN7doctest6detail14MessageBuildermlINSt7__cxx1112basic_stringIcSt11char_traitsIcESaIcEEEEERS1_RKT_(ptr noundef nonnull align 8 dereferenceable(49) %0, ptr noundef nonnull align 8 dereferenceable(32) %1) #6 comdat align 2 {
  %3 = alloca ptr, align 8
  %4 = alloca ptr, align 8
  store ptr %0, ptr %3, align 8
  store ptr %1, ptr %4, align 8
  %5 = load ptr, ptr %3, align 8
  %6 = load ptr, ptr %4, align 8
  %7 = call noundef nonnull align 8 dereferenceable(49) ptr @_ZN7doctest6detail14MessageBuildercmINSt7__cxx1112basic_stringIcSt11char_traitsIcESaIcEEEEERS1_RKT_(ptr noundef nonnull align 8 dereferenceable(49) %5, ptr noundef nonnull align 8 dereferenceable(32) %6)
  ret ptr %7
}

; Function Attrs: mustprogress nounwind uwtable
define linkonce_odr dso_local noundef ptr @_ZNKSt19__shared_ptr_accessIN4Luau6ModuleELN9__gnu_cxx12_Lock_policyE2ELb0ELb0EEptEv(ptr noundef nonnull align 1 dereferenceable(1) %0) #1 comdat align 2 {
  %2 = alloca ptr, align 8
  store ptr %0, ptr %2, align 8
  %3 = load ptr, ptr %2, align 8
  %4 = call noundef ptr @_ZNKSt19__shared_ptr_accessIN4Luau6ModuleELN9__gnu_cxx12_Lock_policyE2ELb0ELb0EE6_M_getEv(ptr noundef nonnull align 1 dereferenceable(1) %3) #2
  ret ptr %4
}

; Function Attrs: mustprogress uwtable
define dso_local void @_ZN4Luau7Fixture10dumpErrorsERKSt10shared_ptrINS_6ModuleEE(ptr noundef nonnull align 8 dereferenceable(2232) %0, ptr noundef nonnull align 8 dereferenceable(16) %1) #6 align 2 personality ptr @__gxx_personality_v0 {
  %3 = alloca ptr, align 8
  %4 = alloca ptr, align 8
  %5 = alloca %"class.std::__cxx11::basic_stringstream", align 8
  %6 = alloca ptr, align 8
  %7 = alloca i32, align 4
  %8 = alloca %"class.std::__cxx11::basic_string", align 8
  %9 = alloca %"struct.doctest::detail::MessageBuilder", align 8
  %10 = alloca %"class.std::__cxx11::basic_string", align 8
  store ptr %0, ptr %3, align 8
  store ptr %1, ptr %4, align 8
  %11 = load ptr, ptr %3, align 8
  call void @_ZNSt7__cxx1118basic_stringstreamIcSt11char_traitsIcESaIcEEC1Ev(ptr noundef nonnull align 8 dereferenceable(128) %5)
  %12 = getelementptr inbounds i8, ptr %5, i64 16
  %13 = load ptr, ptr %4, align 8
  %14 = call noundef ptr @_ZNKSt19__shared_ptr_accessIN4Luau6ModuleELN9__gnu_cxx12_Lock_policyE2ELb0ELb0EEptEv(ptr noundef nonnull align 1 dereferenceable(1) %13) #2
  %15 = getelementptr inbounds %"struct.Luau::Module", ptr %14, i32 0, i32 19
  invoke void @_ZN4Luau7Fixture10dumpErrorsERSoRKSt6vectorINS_9TypeErrorESaIS3_EE(ptr noundef nonnull align 8 dereferenceable(2232) %11, ptr noundef nonnull align 8 dereferenceable(8) %12, ptr noundef nonnull align 8 dereferenceable(24) %15)
          to label %16 unwind label %29

16:                                               ; preds = %2
  invoke void @_ZNKSt7__cxx1118basic_stringstreamIcSt11char_traitsIcESaIcEE3strEv(ptr dead_on_unwind writable sret(%"class.std::__cxx11::basic_string") align 8 %8, ptr noundef nonnull align 8 dereferenceable(128) %5)
          to label %17 unwind label %29

17:                                               ; preds = %16
  %18 = call noundef zeroext i1 @_ZNKSt7__cxx1112basic_stringIcSt11char_traitsIcESaIcEE5emptyEv(ptr noundef nonnull align 8 dereferenceable(32) %8) #2
  %19 = xor i1 %18, true
  call void @_ZNSt7__cxx1112basic_stringIcSt11char_traitsIcESaIcEED1Ev(ptr noundef nonnull align 8 dereferenceable(32) %8) #2
  br i1 %19, label %20, label %46

20:                                               ; preds = %17
  br label %21

21:                                               ; preds = %20
  invoke void @_ZN7doctest6detail14MessageBuilderC1EPKciNS_10assertType4EnumE(ptr noundef nonnull align 8 dereferenceable(49) %9, ptr noundef @.str.61, i32 noundef 513, i32 noundef 1)
          to label %22 unwind label %29

22:                                               ; preds = %21
  invoke void @_ZNKSt7__cxx1118basic_stringstreamIcSt11char_traitsIcESaIcEE3strEv(ptr dead_on_unwind writable sret(%"class.std::__cxx11::basic_string") align 8 %10, ptr noundef nonnull align 8 dereferenceable(128) %5)
          to label %23 unwind label %33

23:                                               ; preds = %22
  %24 = invoke noundef nonnull align 8 dereferenceable(49) ptr @_ZN7doctest6detail14MessageBuildermlINSt7__cxx1112basic_stringIcSt11char_traitsIcESaIcEEEEERS1_RKT_(ptr noundef nonnull align 8 dereferenceable(49) %9, ptr noundef nonnull align 8 dereferenceable(32) %10)
          to label %25 unwind label %37

25:                                               ; preds = %23
  call void @_ZNSt7__cxx1112basic_stringIcSt11char_traitsIcESaIcEED1Ev(ptr noundef nonnull align 8 dereferenceable(32) %10) #2
  %26 = invoke noundef zeroext i1 @_ZN7doctest6detail14MessageBuilder3logEv(ptr noundef nonnull align 8 dereferenceable(49) %9)
          to label %27 unwind label %33

27:                                               ; preds = %25
  br i1 %26, label %28, label %41

28:                                               ; preds = %27
  call void asm sideeffect "int $$3\0A", "~{dirflag},~{fpsr},~{flags}"() #2, !srcloc !27
  br label %41

29:                                               ; preds = %21, %16, %2
  %30 = landingpad { ptr, i32 }
          cleanup
  %31 = extractvalue { ptr, i32 } %30, 0
  store ptr %31, ptr %6, align 8
  %32 = extractvalue { ptr, i32 } %30, 1
  store i32 %32, ptr %7, align 4
  br label %47

33:                                               ; preds = %41, %25, %22
  %34 = landingpad { ptr, i32 }
          cleanup
  %35 = extractvalue { ptr, i32 } %34, 0
  store ptr %35, ptr %6, align 8
  %36 = extractvalue { ptr, i32 } %34, 1
  store i32 %36, ptr %7, align 4
  br label %45

37:                                               ; preds = %23
  %38 = landingpad { ptr, i32 }
          cleanup
  %39 = extractvalue { ptr, i32 } %38, 0
  store ptr %39, ptr %6, align 8
  %40 = extractvalue { ptr, i32 } %38, 1
  store i32 %40, ptr %7, align 4
  call void @_ZNSt7__cxx1112basic_stringIcSt11char_traitsIcESaIcEED1Ev(ptr noundef nonnull align 8 dereferenceable(32) %10) #2
  br label %45

41:                                               ; preds = %28, %27
  invoke void @_ZN7doctest6detail14MessageBuilder5reactEv(ptr noundef nonnull align 8 dereferenceable(49) %9)
          to label %42 unwind label %33

42:                                               ; preds = %41
  call void @_ZN7doctest6detail14MessageBuilderD1Ev(ptr noundef nonnull align 8 dereferenceable(49) %9) #2
  br label %43

43:                                               ; preds = %42
  br label %44

44:                                               ; preds = %43
  br label %46

45:                                               ; preds = %37, %33
  call void @_ZN7doctest6detail14MessageBuilderD1Ev(ptr noundef nonnull align 8 dereferenceable(49) %9) #2
  br label %47

46:                                               ; preds = %44, %17
  call void @_ZNSt7__cxx1118basic_stringstreamIcSt11char_traitsIcESaIcEED1Ev(ptr noundef nonnull align 8 dereferenceable(128) %5) #2
  ret void

47:                                               ; preds = %45, %29
  call void @_ZNSt7__cxx1118basic_stringstreamIcSt11char_traitsIcESaIcEED1Ev(ptr noundef nonnull align 8 dereferenceable(128) %5) #2
  br label %48

48:                                               ; preds = %47
  %49 = load ptr, ptr %6, align 8
  %50 = load i32, ptr %7, align 4
  %51 = insertvalue { ptr, i32 } poison, ptr %49, 0
  %52 = insertvalue { ptr, i32 } %51, i32 %50, 1
  resume { ptr, i32 } %52
}